target datalayout = "e-m:e-p270:32:32-p271:32:32-p272:64:64-i64:64-i128:128-f80:128-n8:16:32:64-S128"
target triple = "x86_64-pc-linux-gnu"

%struct.cell = type { %struct.gridpt, ptr, %struct.dtlink_s_ }
%struct.gridpt = type { i32, i32 }
%struct.dtlink_s_ = type { ptr, %union.anon.0 }
%union.anon.0 = type { ptr }
%struct._node_list = type { ptr, ptr }

; Function Attrs: nounwind uwtable
define i32 @gLength(ptr noundef %0) #0 {
  %2 = alloca ptr, align 8
  %3 = alloca i32, align 4
  %4 = alloca ptr, align 8
  store ptr %0, ptr %2, align 8, !tbaa !10
  call void @llvm.lifetime.start.p0(i64 4, ptr %3) #9
  store i32 0, ptr %3, align 4, !tbaa !3
  call void @llvm.lifetime.start.p0(i64 8, ptr %4) #9
  %5 = load ptr, ptr %2, align 8, !tbaa !10
  %6 = getelementptr inbounds nuw %struct.cell, ptr %5, i32 0, i32 1
  %7 = load ptr, ptr %6, align 8, !tbaa !43
  store ptr %7, ptr %4, align 8, !tbaa !45
  br label %8

8:                                                ; preds = %11, %1
  %9 = load ptr, ptr %4, align 8, !tbaa !45
  %10 = icmp ne ptr %9, null
  br i1 %10, label %11, label %17

11:                                               ; preds = %8
  %12 = load i32, ptr %3, align 4, !tbaa !3
  %13 = add nsw i32 %12, 1
  store i32 %13, ptr %3, align 4, !tbaa !3
  %14 = load ptr, ptr %4, align 8, !tbaa !45
  %15 = getelementptr inbounds nuw %struct._node_list, ptr %14, i32 0, i32 1
  %16 = load ptr, ptr %15, align 8, !tbaa !48
  store ptr %16, ptr %4, align 8, !tbaa !45
  br label %8, !llvm.loop !49

17:                                               ; preds = %8
  %18 = load i32, ptr %3, align 4, !tbaa !3
  call void @llvm.lifetime.end.p0(i64 8, ptr %4) #9
  call void @llvm.lifetime.end.p0(i64 4, ptr %3) #9
  ret i32 %18
}