; Function Attrs: nofree norecurse nosync nounwind memory(read, inaccessiblemem: none) uwtable
define i32 @gLength(ptr noundef readonly captures(none) %0) local_unnamed_addr #7 {
  br label %2

2:                                                ; preds = %2, %1
  %.04 = phi i32 [ 0, %1 ], [ %3, %2 ]
  %.pn = phi ptr [ %0, %1 ], [ %.0, %2 ]
  %.0.in = getelementptr inbounds nuw i8, ptr %.pn, i64 8
  %.0 = load ptr, ptr %.0.in, align 8, !tbaa !41
  %.not = icmp eq ptr %.0, null
  %3 = add nuw nsw i32 %.04, 1
  br i1 %.not, label %4, label %2, !llvm.loop !42

4:                                                ; preds = %2
  ret i32 %.04
}